target datalayout = "e-m:e-p270:32:32-p271:32:32-p272:64:64-i64:64-i128:128-f80:128-n8:16:32:64-S128"
target triple = "x86_64-pc-linux-gnu"

%struct.mbedtls_psa_pake_operation_t = type { i32, ptr, i64, i32, [336 x i8], i64, i64, %union.anon }
%union.anon = type { %struct.mbedtls_ecjpake_context }
%struct.mbedtls_ecjpake_context = type { i32, %struct.mbedtls_ecp_group, i32, i32, %struct.mbedtls_ecp_point, %struct.mbedtls_ecp_point, %struct.mbedtls_ecp_point, %struct.mbedtls_ecp_point, %struct.mbedtls_ecp_point, %struct.mbedtls_mpi, %struct.mbedtls_mpi, %struct.mbedtls_mpi }
%struct.mbedtls_ecp_group = type { i32, %struct.mbedtls_mpi, %struct.mbedtls_mpi, %struct.mbedtls_mpi, %struct.mbedtls_ecp_point, %struct.mbedtls_mpi, i64, i64, i32, ptr, ptr, ptr, ptr, ptr, i64 }
%struct.mbedtls_ecp_point = type { %struct.mbedtls_mpi, %struct.mbedtls_mpi, %struct.mbedtls_mpi }
%struct.mbedtls_mpi = type { ptr, i16, i16 }

; Function Attrs: nounwind uwtable
define hidden i32 @mbedtls_psa_pake_abort(ptr noundef %0) #0 {
  %2 = alloca ptr, align 8
  store ptr %0, ptr %2, align 8, !tbaa !3
  %3 = load ptr, ptr %2, align 8, !tbaa !3
  %4 = getelementptr inbounds nuw %struct.mbedtls_psa_pake_operation_t, ptr %3, i32 0, i32 1
  %5 = load ptr, ptr %4, align 8, !tbaa !15
  %6 = load ptr, ptr %2, align 8, !tbaa !3
  %7 = getelementptr inbounds nuw %struct.mbedtls_psa_pake_operation_t, ptr %6, i32 0, i32 2
  %8 = load i64, ptr %7, align 8, !tbaa !17
  call void @mbedtls_zeroize_and_free(ptr noundef %5, i64 noundef %8)
  %9 = load ptr, ptr %2, align 8, !tbaa !3
  %10 = getelementptr inbounds nuw %struct.mbedtls_psa_pake_operation_t, ptr %9, i32 0, i32 1
  store ptr null, ptr %10, align 8, !tbaa !15
  %11 = load ptr, ptr %2, align 8, !tbaa !3
  %12 = getelementptr inbounds nuw %struct.mbedtls_psa_pake_operation_t, ptr %11, i32 0, i32 2
  store i64 0, ptr %12, align 8, !tbaa !17
  %13 = load ptr, ptr %2, align 8, !tbaa !3
  %14 = getelementptr inbounds nuw %struct.mbedtls_psa_pake_operation_t, ptr %13, i32 0, i32 0
  %15 = load i32, ptr %14, align 8, !tbaa !21
  %16 = icmp eq i32 %15, 167772416
  br i1 %16, label %17, label %29

17:                                               ; preds = %1
  %18 = load ptr, ptr %2, align 8, !tbaa !3
  %19 = getelementptr inbounds nuw %struct.mbedtls_psa_pake_operation_t, ptr %18, i32 0, i32 3
  store i32 2, ptr %19, align 8, !tbaa !26
  %20 = load ptr, ptr %2, align 8, !tbaa !3
  %21 = getelementptr inbounds nuw %struct.mbedtls_psa_pake_operation_t, ptr %20, i32 0, i32 4
  %22 = getelementptr inbounds [336 x i8], ptr %21, i64 0, i64 0
  call void @mbedtls_platform_zeroize(ptr noundef %22, i64 noundef 336)
  %23 = load ptr, ptr %2, align 8, !tbaa !3
  %24 = getelementptr inbounds nuw %struct.mbedtls_psa_pake_operation_t, ptr %23, i32 0, i32 5
  store i64 0, ptr %24, align 8, !tbaa !27
  %25 = load ptr, ptr %2, align 8, !tbaa !3
  %26 = getelementptr inbounds nuw %struct.mbedtls_psa_pake_operation_t, ptr %25, i32 0, i32 6
  store i64 0, ptr %26, align 8, !tbaa !28
  %27 = load ptr, ptr %2, align 8, !tbaa !3
  %28 = getelementptr inbounds nuw %struct.mbedtls_psa_pake_operation_t, ptr %27, i32 0, i32 7
  call void @mbedtls_ecjpake_free(ptr noundef %28)
  br label %29

29:                                               ; preds = %17, %1
  %30 = load ptr, ptr %2, align 8, !tbaa !3
  %31 = getelementptr inbounds nuw %struct.mbedtls_psa_pake_operation_t, ptr %30, i32 0, i32 0
  store i32 0, ptr %31, align 8, !tbaa !21
  ret i32 0
}