; Function Attrs: nounwind uwtable
define hidden noundef i32 @mbedtls_psa_pake_abort(ptr noundef %0) local_unnamed_addr #0 {
  %2 = getelementptr inbounds nuw i8, ptr %0, i64 8
  %3 = load ptr, ptr %2, align 8, !tbaa !7
  %4 = getelementptr inbounds nuw i8, ptr %0, i64 16
  %5 = load i64, ptr %4, align 8, !tbaa !12
  tail call void @mbedtls_zeroize_and_free(ptr noundef %3, i64 noundef %5) #8
  tail call void @llvm.memset.p0.i64(ptr noundef nonnull align 8 dereferenceable(16) %2, i8 0, i64 16, i1 false)
  %6 = load i32, ptr %0, align 8, !tbaa !16
  %7 = icmp eq i32 %6, 167772416
  br i1 %7, label %8, label %13

8:                                                ; preds = %1
  %9 = getelementptr inbounds nuw i8, ptr %0, i64 24
  store i32 2, ptr %9, align 8, !tbaa !18
  %10 = getelementptr inbounds nuw i8, ptr %0, i64 28
  tail call void @mbedtls_platform_zeroize(ptr noundef nonnull %10, i64 noundef 336) #8
  %11 = getelementptr inbounds nuw i8, ptr %0, i64 368
  %12 = getelementptr inbounds nuw i8, ptr %0, i64 384
  tail call void @llvm.memset.p0.i64(ptr noundef nonnull align 8 dereferenceable(16) %11, i8 0, i64 16, i1 false)
  tail call void @mbedtls_ecjpake_free(ptr noundef nonnull %12) #8
  br label %13

13:                                               ; preds = %8, %1
  store i32 0, ptr %0, align 8, !tbaa !16
  ret i32 0
}